target datalayout = "e-m:e-p270:32:32-p271:32:32-p272:64:64-i64:64-i128:128-f80:128-n8:16:32:64-S128"
target triple = "x86_64-pc-linux-gnu"

%struct.pmix_object_t = type { %union.pthread_mutex_t, ptr, i32, %struct.pmix_tma }
%struct.pmix_tma = type { ptr, ptr, ptr, ptr, ptr, ptr, ptr, ptr }
%union.pthread_mutex_t = type { %struct.__pthread_mutex_s }
%struct.__pthread_mutex_s = type { i32, i32, i32, i32, i32, i16, i16, %struct.__pthread_internal_list }
%struct.__pthread_internal_list = type { ptr, ptr }
%struct.pmix_client_globals_t = type { ptr, i8, %struct.pmix_list_t, %struct.pmix_pointer_array_t, %struct.pmix_list_t, i32, i32, i32, i32, i32, i32, i32, i32, i32, i32, i32, i32, i32, i32, i32, i32, %struct.pmix_iof_sink_t, %struct.pmix_iof_sink_t, i32, i32 }
%struct.pmix_pointer_array_t = type { %struct.pmix_object_t, i32, i32, i32, i32, i32, ptr, ptr }
%struct.pmix_list_t = type { %struct.pmix_object_t, %struct.pmix_list_item_t, i64 }
%struct.pmix_list_item_t = type { %struct.pmix_object_t, ptr, ptr, i32 }
%struct.pmix_iof_sink_t = type { %struct.pmix_list_item_t, %struct.pmix_proc, i16, %struct.pmix_iof_write_event_t, i8, i8, i8 }
%struct.pmix_proc = type { [256 x i8], i32 }
%struct.pmix_iof_write_event_t = type { %struct.pmix_list_item_t, i8, i8, i32, ptr, %struct.timeval, i32, %struct.pmix_list_t }
%struct.timeval = type { i64, i64 }
%struct.pmix_output_desc_t = type { i8, i8, i32, i8, i32, ptr, ptr, i32, ptr, i32, i8, i8, i8, i8, ptr, i32, i32 }
%struct.pmix_globals_t = type { i32, %struct.pmix_proc, %struct.pmix_value, %struct.pmix_value, ptr, i32, i32, ptr, i32, i32, i32, i32, i32, ptr, ptr, i32, %struct.pmix_events_t, i8, i8, %struct.timeval, %struct.pmix_list_t, %struct.pmix_pointer_array_t, i32, i32, %struct.pmix_hotel_t, i8, %struct.pmix_list_t, i8, i8, i8, i64, %struct.pmix_list_t, %struct.pmix_topology_t, %struct.pmix_cpuset_t, i8, i8, %struct.pmix_iof_flags_t, %struct.pmix_keyindex_t }
%struct.pmix_value = type { i16, %union.anon }
%union.anon = type { %struct.pmix_envar_t }
%struct.pmix_envar_t = type { ptr, ptr, i8 }
%struct.pmix_events_t = type { %struct.pmix_object_t, i64, ptr, ptr, %struct.pmix_list_t, %struct.pmix_list_t, %struct.pmix_list_t, %struct.pmix_list_t }
%struct.pmix_hotel_t = type { %struct.pmix_object_t, i32, ptr, %struct.timeval, ptr, ptr, ptr, ptr, i32 }
%struct.pmix_topology_t = type { ptr, ptr }
%struct.pmix_cpuset_t = type { ptr, ptr }
%struct.pmix_iof_flags_t = type { i8, i8, i8, i8, i8, i8, i8, ptr, ptr, i8, i8, i8, i8, i8, i8 }
%struct.pmix_keyindex_t = type { %struct.pmix_object_t, ptr, i32 }
%struct.event = type { %struct.event_callback, %union.anon.2, i32, ptr, %union.anon.4, i16, i16, %struct.timeval }
%struct.event_callback = type { %struct.anon.0, i16, i8, i8, %union.anon.1, ptr }
%struct.anon.0 = type { ptr, ptr }
%union.anon.1 = type { ptr }
%union.anon.2 = type { %struct.anon.3 }
%struct.anon.3 = type { ptr, ptr }
%union.anon.4 = type { %struct.anon.5 }
%struct.anon.5 = type { %struct.anon.6, %struct.timeval }
%struct.anon.6 = type { ptr, ptr }
%struct.pmix_iof_read_event_t = type { %struct.pmix_object_t, %struct.event, %struct.timeval, i32, i8, ptr, i8, %struct.pmix_proc, i16, ptr, i64, ptr, i64 }

@pmix_client_globals = external global %struct.pmix_client_globals_t, align 8
@pmix_output_info = external global [0 x %struct.pmix_output_desc_t], align 8
@pmix_globals = external global %struct.pmix_globals_t, align 8
@.str.83 = private unnamed_addr constant [22 x i8] c"%s iof: closing fd %d\00", align 1

; Function Attrs: nounwind uwtable
define internal void @iof_read_event_destruct(ptr noundef %0) #0 {
  %2 = alloca ptr, align 8
  store ptr %0, ptr %2, align 8, !tbaa !14
  %3 = load ptr, ptr %2, align 8, !tbaa !14
  %4 = getelementptr inbounds nuw %struct.pmix_iof_read_event_t, ptr %3, i32 0, i32 4
  %5 = load i8, ptr %4, align 4, !tbaa !172, !range !24, !noundef !25
  %6 = trunc i8 %5 to i1
  br i1 %6, label %7, label %11

7:                                                ; preds = %1
  %8 = load ptr, ptr %2, align 8, !tbaa !14
  %9 = getelementptr inbounds nuw %struct.pmix_iof_read_event_t, ptr %8, i32 0, i32 1
  %10 = call i32 @event_del(ptr noundef %9)
  br label %11

11:                                               ; preds = %7, %1
  %12 = load ptr, ptr %2, align 8, !tbaa !14
  %13 = getelementptr inbounds nuw %struct.pmix_iof_read_event_t, ptr %12, i32 0, i32 3
  %14 = load i32, ptr %13, align 8, !tbaa !170
  %15 = icmp sle i32 0, %14
  br i1 %15, label %16, label %42

16:                                               ; preds = %11
  %17 = load i32, ptr getelementptr inbounds nuw (%struct.pmix_client_globals_t, ptr @pmix_client_globals, i32 0, i32 17), align 8, !tbaa !28
  %18 = icmp sge i32 %17, 0
  br i1 %18, label %19, label %35

19:                                               ; preds = %16
  %20 = load i32, ptr getelementptr inbounds nuw (%struct.pmix_client_globals_t, ptr @pmix_client_globals, i32 0, i32 17), align 8, !tbaa !28
  %21 = icmp slt i32 %20, 64
  br i1 %21, label %22, label %35

22:                                               ; preds = %19
  %23 = load i32, ptr getelementptr inbounds nuw (%struct.pmix_client_globals_t, ptr @pmix_client_globals, i32 0, i32 17), align 8, !tbaa !28
  %24 = sext i32 %23 to i64
  %25 = getelementptr inbounds [0 x %struct.pmix_output_desc_t], ptr @pmix_output_info, i64 0, i64 %24
  %26 = getelementptr inbounds nuw %struct.pmix_output_desc_t, ptr %25, i32 0, i32 2
  %27 = load i32, ptr %26, align 4, !tbaa !41
  %28 = icmp sge i32 %27, 20
  br i1 %28, label %29, label %35

29:                                               ; preds = %22
  %30 = load i32, ptr getelementptr inbounds nuw (%struct.pmix_client_globals_t, ptr @pmix_client_globals, i32 0, i32 17), align 8, !tbaa !28
  %31 = call ptr @pmix_util_print_name_args(ptr noundef getelementptr inbounds nuw (%struct.pmix_globals_t, ptr @pmix_globals, i32 0, i32 1))
  %32 = load ptr, ptr %2, align 8, !tbaa !14
  %33 = getelementptr inbounds nuw %struct.pmix_iof_read_event_t, ptr %32, i32 0, i32 3
  %34 = load i32, ptr %33, align 8, !tbaa !170
  call void (i32, ptr, ...) @pmix_output(i32 noundef %30, ptr noundef @.str.83, ptr noundef %31, i32 noundef %34)
  br label %35

35:                                               ; preds = %29, %22, %19, %16
  %36 = load ptr, ptr %2, align 8, !tbaa !14
  %37 = getelementptr inbounds nuw %struct.pmix_iof_read_event_t, ptr %36, i32 0, i32 3
  %38 = load i32, ptr %37, align 8, !tbaa !170
  %39 = call i32 @close(i32 noundef %38)
  %40 = load ptr, ptr %2, align 8, !tbaa !14
  %41 = getelementptr inbounds nuw %struct.pmix_iof_read_event_t, ptr %40, i32 0, i32 3
  store i32 -1, ptr %41, align 8, !tbaa !170
  br label %42

42:                                               ; preds = %35, %11
  %43 = load ptr, ptr %2, align 8, !tbaa !14
  %44 = getelementptr inbounds nuw %struct.pmix_iof_read_event_t, ptr %43, i32 0, i32 9
  %45 = load ptr, ptr %44, align 8, !tbaa !166
  %46 = icmp ne ptr null, %45
  br i1 %46, label %47, label %58

47:                                               ; preds = %42
  br label %48

48:                                               ; preds = %47
  %49 = load ptr, ptr %2, align 8, !tbaa !14
  %50 = getelementptr inbounds nuw %struct.pmix_iof_read_event_t, ptr %49, i32 0, i32 9
  %51 = load ptr, ptr %50, align 8, !tbaa !166
  %52 = load ptr, ptr %2, align 8, !tbaa !14
  %53 = getelementptr inbounds nuw %struct.pmix_iof_read_event_t, ptr %52, i32 0, i32 10
  %54 = load i64, ptr %53, align 8, !tbaa !164
  call void @PMIx_Proc_free(ptr noundef %51, i64 noundef %54)
  %55 = load ptr, ptr %2, align 8, !tbaa !14
  %56 = getelementptr inbounds nuw %struct.pmix_iof_read_event_t, ptr %55, i32 0, i32 9
  store ptr null, ptr %56, align 8, !tbaa !166
  br label %57

57:                                               ; preds = %48
  br label %58

58:                                               ; preds = %57, %42
  %59 = load ptr, ptr %2, align 8, !tbaa !14
  %60 = getelementptr inbounds nuw %struct.pmix_iof_read_event_t, ptr %59, i32 0, i32 11
  %61 = load ptr, ptr %60, align 8, !tbaa !167
  %62 = icmp ne ptr null, %61
  br i1 %62, label %63, label %74

63:                                               ; preds = %58
  br label %64

64:                                               ; preds = %63
  %65 = load ptr, ptr %2, align 8, !tbaa !14
  %66 = getelementptr inbounds nuw %struct.pmix_iof_read_event_t, ptr %65, i32 0, i32 11
  %67 = load ptr, ptr %66, align 8, !tbaa !167
  %68 = load ptr, ptr %2, align 8, !tbaa !14
  %69 = getelementptr inbounds nuw %struct.pmix_iof_read_event_t, ptr %68, i32 0, i32 12
  %70 = load i64, ptr %69, align 8, !tbaa !168
  call void @PMIx_Info_free(ptr noundef %67, i64 noundef %70)
  %71 = load ptr, ptr %2, align 8, !tbaa !14
  %72 = getelementptr inbounds nuw %struct.pmix_iof_read_event_t, ptr %71, i32 0, i32 11
  store ptr null, ptr %72, align 8, !tbaa !167
  br label %73

73:                                               ; preds = %64
  br label %74

74:                                               ; preds = %73, %58
  ret void
}