; Function Attrs: nounwind uwtable
define internal void @iof_read_event_destruct(ptr noundef %0) #0 {
  %2 = getelementptr inbounds nuw i8, ptr %0, i64 268
  %3 = load i8, ptr %2, align 4, !tbaa !153, !range !19, !noundef !20
  %4 = trunc nuw i8 %3 to i1
  br i1 %4, label %5, label %8

5:                                                ; preds = %1
  %6 = getelementptr inbounds nuw i8, ptr %0, i64 120
  %7 = tail call i32 @event_del(ptr noundef nonnull %6) #18
  br label %8

8:                                                ; preds = %5, %1
  %9 = getelementptr inbounds nuw i8, ptr %0, i64 264
  %10 = load i32, ptr %9, align 8, !tbaa !151
  %11 = icmp sgt i32 %10, -1
  br i1 %11, label %12, label %25

12:                                               ; preds = %8
  %13 = load i32, ptr getelementptr inbounds nuw (i8, ptr @pmix_client_globals, i64 768), align 8, !tbaa !23
  %or.cond = icmp ult i32 %13, 64
  br i1 %or.cond, label %14, label %22

14:                                               ; preds = %12
  %15 = zext nneg i32 %13 to i64
  %16 = getelementptr inbounds nuw [0 x %struct.pmix_output_desc_t], ptr @pmix_output_info, i64 0, i64 %15, i32 2
  %17 = load i32, ptr %16, align 4, !tbaa !36
  %18 = icmp sgt i32 %17, 19
  br i1 %18, label %19, label %22

19:                                               ; preds = %14
  %20 = tail call ptr @pmix_util_print_name_args(ptr noundef nonnull getelementptr inbounds nuw (i8, ptr @pmix_globals, i64 4)) #18
  %21 = load i32, ptr %9, align 8, !tbaa !151
  tail call void (i32, ptr, ...) @pmix_output(i32 noundef %13, ptr noundef nonnull @.str.83, ptr noundef %20, i32 noundef %21) #18
  %.pre = load i32, ptr %9, align 8, !tbaa !151
  br label %22

22:                                               ; preds = %19, %14, %12
  %23 = phi i32 [ %.pre, %19 ], [ %10, %14 ], [ %10, %12 ]
  %24 = tail call i32 @close(i32 noundef %23) #18
  store i32 -1, ptr %9, align 8, !tbaa !151
  br label %25

25:                                               ; preds = %22, %8
  %26 = getelementptr inbounds nuw i8, ptr %0, i64 552
  %27 = load ptr, ptr %26, align 8, !tbaa !147
  %.not = icmp eq ptr %27, null
  br i1 %.not, label %31, label %28

28:                                               ; preds = %25
  %29 = getelementptr inbounds nuw i8, ptr %0, i64 560
  %30 = load i64, ptr %29, align 8, !tbaa !145
  tail call void @PMIx_Proc_free(ptr noundef nonnull %27, i64 noundef %30) #18
  store ptr null, ptr %26, align 8, !tbaa !147
  br label %31

31:                                               ; preds = %28, %25
  %32 = getelementptr inbounds nuw i8, ptr %0, i64 568
  %33 = load ptr, ptr %32, align 8, !tbaa !148
  %.not17 = icmp eq ptr %33, null
  br i1 %.not17, label %37, label %34

34:                                               ; preds = %31
  %35 = getelementptr inbounds nuw i8, ptr %0, i64 576
  %36 = load i64, ptr %35, align 8, !tbaa !149
  tail call void @PMIx_Info_free(ptr noundef nonnull %33, i64 noundef %36) #18
  store ptr null, ptr %32, align 8, !tbaa !148
  br label %37

37:                                               ; preds = %34, %31
  ret void
}